(lp0
S'ca9f885090e3b7d587a55d2a5fb442ba8c38b5708ad1c1780e1455bbd706e6d2'
p1
aS'e2f6445c1d5bb0859dc1d07231b25dda4c9525104128990436c776acdea77468'
p2
aS'7155d0ea4730ad5815201974ab60f2350d6e3119be54549814cee0a82aba695e'
p3
aS'9193c3fd02e192e4e592f7aef7651d68f2ecbc799adf8901186c41cf8148103c'
p4
aS'3d41bb333c7d04bb7308f9e91b0752cd240034bf6b347cf55d8adf3c7edc4b61'
p5
aS'378baa662365b9db89005cc4dac54fbb764760051e8f0cb1c801bca9433f9412'
p6
aS'0cc38c257e8ef7478725abf4ea6976d5857ec339a8359f4c42d855a84d154afa'
p7
aS'211955dfa72cfea1ab8c53dbfd1551458bdaff5202e71a301ffcd0dde48c81f7'
p8
aS'c571f7256302ece18fceee5b23adbaf60255daa6fcde9d15da4f7dfb5516c8a3'
p9
aS'4171f9c69e6d503c18b4061c2aedcb1a428eab99902b954b4e3e3d419b213a19'
p10
a.