(lp0
S'6a6f8e1628c368679d79e2eb57d67ab5'
p1
aS'12b522d8d0f4f8025ad27605f2f779dd'
p2
aS'af513ab4a4021a228f5f44a938f695eb'
p3
aS'e7b3b323cdb6c018ecfb5affb443bc64'
p4
aS'5bd558b14b1cbf7697164e4521c7718f'
p5
aS'f370bd4221b39c85cf748dbb61346071'
p6
aS'7cd2a39d385aba7f88db97c6b2572655'
p7
aS'95896d20d67d3c29b57ee72f950ec127'
p8
aS'd27c2dfe607f25a869341c60716db4d3'
p9
aS'a0e2195edf50f107c9c21bdba1d698a7'
p10
aS'f2a573a1fa5d1cbeebb469c66cbe10bc'
p11
aS'c8ca17951b03b5acc06c58be4adebdeb'
p12
aS'ba91a2f0c83e4a3e17599e10dd307428'
p13
aS'33ea835076415cb74f44054cdbd72e39'
p14
aS'84cebe25a5d0d1721541ba9dcf8e23f8'
p15
aS'c520f291f3e83dc53f8213019bd10e35'
p16
aS'93790f9027abb6216aaad32c3538b35d'
p17
aS'9e0c4c741c20ce599a068fb93dde7289'
p18
aS'4f4899da9d859135e0914e7efd0b00cd'
p19
aS'6426043bdd97ab29fe3f4e47702c511e'
p20
a.